#include <math.h>
#include <stdio.h>
#include <stdlib.h>
#include <string.h>

int main(){
	int n,i,e;
	scanf("%d",&n);
	int *sz=(int*)malloc(sizeof(int)*n);
	for(i=0;i<n;i++)
	{
		scanf("%d",&sz[i]);
	}
	if(n%2==0)
	{
		for(i=0;i<(n/2);i++)
		{
			e=sz[i];
			sz[i]=sz[n-i-1];
			sz[n-i-1]=e;
		}
	}
	else
	{
		for(i=0;i<((n+1)/2);i++)
		{
			e=sz[i];
			sz[i]=sz[n-i-1];
			sz[n-i-1]=e;
		}
	}
	for(i=0;i<n;i++)
	{
		if(i<n-1)
		{
			printf("%d ",sz[i]);
		}
		else
		{
			printf("%d",sz[i]);
		}
	}
	return 0;
}