; ModuleID = '47/1588.c'
source_filename = "47/1588.c"
target datalayout = "e-m:e-p270:32:32-p271:32:32-p272:64:64-i64:64-f80:128-n8:16:32:64-S128"
target triple = "x86_64-pc-linux-gnu"

@.str = private unnamed_addr constant [3 x i8] c"%d\00", align 1
@.str.1 = private unnamed_addr constant [4 x i8] c"%d \00", align 1

; Function Attrs: noinline nounwind uwtable
define dso_local i32 @main() #0 {
  %1 = alloca i32, align 4
  %2 = alloca i32, align 4
  %3 = alloca i32, align 4
  %4 = alloca i32, align 4
  %5 = alloca i32*, align 8
  store i32 0, i32* %1, align 4
  %6 = call i32 (i8*, ...) @__isoc99_scanf(i8* getelementptr inbounds ([3 x i8], [3 x i8]* @.str, i64 0, i64 0), i32* %2)
  %7 = load i32, i32* %2, align 4
  %8 = sext i32 %7 to i64
  %9 = mul i64 4, %8
  %10 = call noalias i8* @malloc(i64 %9) #3
  %11 = bitcast i8* %10 to i32*
  store i32* %11, i32** %5, align 8
  store i32 0, i32* %3, align 4
  br label %12

12:                                               ; preds = %22, %0
  %13 = load i32, i32* %3, align 4
  %14 = load i32, i32* %2, align 4
  %15 = icmp slt i32 %13, %14
  br i1 %15, label %16, label %25

16:                                               ; preds = %12
  %17 = load i32*, i32** %5, align 8
  %18 = load i32, i32* %3, align 4
  %19 = sext i32 %18 to i64
  %20 = getelementptr inbounds i32, i32* %17, i64 %19
  %21 = call i32 (i8*, ...) @__isoc99_scanf(i8* getelementptr inbounds ([3 x i8], [3 x i8]* @.str, i64 0, i64 0), i32* %20)
  br label %22

22:                                               ; preds = %16
  %23 = load i32, i32* %3, align 4
  %24 = add nsw i32 %23, 1
  store i32 %24, i32* %3, align 4
  br label %12

25:                                               ; preds = %12
  %26 = load i32, i32* %2, align 4
  %27 = srem i32 %26, 2
  %28 = icmp eq i32 %27, 0
  br i1 %28, label %29, label %65

29:                                               ; preds = %25
  store i32 0, i32* %3, align 4
  br label %30

30:                                               ; preds = %61, %29
  %31 = load i32, i32* %3, align 4
  %32 = load i32, i32* %2, align 4
  %33 = sdiv i32 %32, 2
  %34 = icmp slt i32 %31, %33
  br i1 %34, label %35, label %64

35:                                               ; preds = %30
  %36 = load i32*, i32** %5, align 8
  %37 = load i32, i32* %3, align 4
  %38 = sext i32 %37 to i64
  %39 = getelementptr inbounds i32, i32* %36, i64 %38
  %40 = load i32, i32* %39, align 4
  store i32 %40, i32* %4, align 4
  %41 = load i32*, i32** %5, align 8
  %42 = load i32, i32* %2, align 4
  %43 = load i32, i32* %3, align 4
  %44 = sub nsw i32 %42, %43
  %45 = sub nsw i32 %44, 1
  %46 = sext i32 %45 to i64
  %47 = getelementptr inbounds i32, i32* %41, i64 %46
  %48 = load i32, i32* %47, align 4
  %49 = load i32*, i32** %5, align 8
  %50 = load i32, i32* %3, align 4
  %51 = sext i32 %50 to i64
  %52 = getelementptr inbounds i32, i32* %49, i64 %51
  store i32 %48, i32* %52, align 4
  %53 = load i32, i32* %4, align 4
  %54 = load i32*, i32** %5, align 8
  %55 = load i32, i32* %2, align 4
  %56 = load i32, i32* %3, align 4
  %57 = sub nsw i32 %55, %56
  %58 = sub nsw i32 %57, 1
  %59 = sext i32 %58 to i64
  %60 = getelementptr inbounds i32, i32* %54, i64 %59
  store i32 %53, i32* %60, align 4
  br label %61

61:                                               ; preds = %35
  %62 = load i32, i32* %3, align 4
  %63 = add nsw i32 %62, 1
  store i32 %63, i32* %3, align 4
  br label %30

64:                                               ; preds = %30
  br label %102

65:                                               ; preds = %25
  store i32 0, i32* %3, align 4
  br label %66

66:                                               ; preds = %98, %65
  %67 = load i32, i32* %3, align 4
  %68 = load i32, i32* %2, align 4
  %69 = add nsw i32 %68, 1
  %70 = sdiv i32 %69, 2
  %71 = icmp slt i32 %67, %70
  br i1 %71, label %72, label %101

72:                                               ; preds = %66
  %73 = load i32*, i32** %5, align 8
  %74 = load i32, i32* %3, align 4
  %75 = sext i32 %74 to i64
  %76 = getelementptr inbounds i32, i32* %73, i64 %75
  %77 = load i32, i32* %76, align 4
  store i32 %77, i32* %4, align 4
  %78 = load i32*, i32** %5, align 8
  %79 = load i32, i32* %2, align 4
  %80 = load i32, i32* %3, align 4
  %81 = sub nsw i32 %79, %80
  %82 = sub nsw i32 %81, 1
  %83 = sext i32 %82 to i64
  %84 = getelementptr inbounds i32, i32* %78, i64 %83
  %85 = load i32, i32* %84, align 4
  %86 = load i32*, i32** %5, align 8
  %87 = load i32, i32* %3, align 4
  %88 = sext i32 %87 to i64
  %89 = getelementptr inbounds i32, i32* %86, i64 %88
  store i32 %85, i32* %89, align 4
  %90 = load i32, i32* %4, align 4
  %91 = load i32*, i32** %5, align 8
  %92 = load i32, i32* %2, align 4
  %93 = load i32, i32* %3, align 4
  %94 = sub nsw i32 %92, %93
  %95 = sub nsw i32 %94, 1
  %96 = sext i32 %95 to i64
  %97 = getelementptr inbounds i32, i32* %91, i64 %96
  store i32 %90, i32* %97, align 4
  br label %98

98:                                               ; preds = %72
  %99 = load i32, i32* %3, align 4
  %100 = add nsw i32 %99, 1
  store i32 %100, i32* %3, align 4
  br label %66

101:                                              ; preds = %66
  br label %102

102:                                              ; preds = %101, %64
  store i32 0, i32* %3, align 4
  br label %103

103:                                              ; preds = %127, %102
  %104 = load i32, i32* %3, align 4
  %105 = load i32, i32* %2, align 4
  %106 = icmp slt i32 %104, %105
  br i1 %106, label %107, label %130

107:                                              ; preds = %103
  %108 = load i32, i32* %3, align 4
  %109 = load i32, i32* %2, align 4
  %110 = sub nsw i32 %109, 1
  %111 = icmp slt i32 %108, %110
  br i1 %111, label %112, label %119

112:                                              ; preds = %107
  %113 = load i32*, i32** %5, align 8
  %114 = load i32, i32* %3, align 4
  %115 = sext i32 %114 to i64
  %116 = getelementptr inbounds i32, i32* %113, i64 %115
  %117 = load i32, i32* %116, align 4
  %118 = call i32 (i8*, ...) @printf(i8* getelementptr inbounds ([4 x i8], [4 x i8]* @.str.1, i64 0, i64 0), i32 %117)
  br label %126

119:                                              ; preds = %107
  %120 = load i32*, i32** %5, align 8
  %121 = load i32, i32* %3, align 4
  %122 = sext i32 %121 to i64
  %123 = getelementptr inbounds i32, i32* %120, i64 %122
  %124 = load i32, i32* %123, align 4
  %125 = call i32 (i8*, ...) @printf(i8* getelementptr inbounds ([3 x i8], [3 x i8]* @.str, i64 0, i64 0), i32 %124)
  br label %126

126:                                              ; preds = %119, %112
  br label %127

127:                                              ; preds = %126
  %128 = load i32, i32* %3, align 4
  %129 = add nsw i32 %128, 1
  store i32 %129, i32* %3, align 4
  br label %103

130:                                              ; preds = %103
  ret i32 0
}

declare dso_local i32 @__isoc99_scanf(i8*, ...) #1

; Function Attrs: nounwind
declare dso_local noalias i8* @malloc(i64) #2

declare dso_local i32 @printf(i8*, ...) #1


!llvm.module.flags = !{!0}
!llvm.ident = !{!1}

!0 = !{i32 1, !"wchar_size", i32 4}
!1 = !{!"clang version 10.0.0-4ubuntu1 "}
